Certificate:
    Data:
        Version: 3 (0x2)
        Serial Number: 2 (0x2)
        Signature Algorithm: sha256WithRSAEncryption
        Issuer: C=CN, ST=ChongQing, O=CQU, OU=Root CA, CN=cQU Root CA
        Validity
            Not Before: Mar 15 02:46:03 2023 GMT
            Not After : Mar 14 02:46:03 2024 GMT
        Subject: C=CN, ST=ChongQing, O=CQU, OU=agent CA, CN=CQU agent CA
        Subject Public Key Info:
            Public Key Algorithm: rsaEncryption
                RSA Public-Key: (2048 bit)
                Modulus:
                    00:d8:c3:b0:88:cd:5e:b5:87:4b:4e:a3:8f:e6:09:
                    74:b8:f4:a9:77:9e:b2:47:45:cf:22:93:8b:51:e7:
                    5f:a5:3e:02:8e:85:1a:c9:93:74:91:c2:3c:98:4e:
                    c7:22:76:96:69:60:d2:42:55:03:5d:77:01:f0:4c:
                    3d:3c:14:70:59:62:4e:02:4d:53:cf:ae:8b:cf:a1:
                    ff:0b:e1:c5:5d:22:47:8d:91:cc:bb:c7:c8:38:d3:
                    3d:1a:30:2e:13:c9:ab:db:88:63:9a:55:9d:d5:44:
                    1b:64:75:f5:0b:0a:ce:02:37:25:1d:1c:b9:26:9b:
                    fd:db:ac:8e:0d:e0:2b:e8:c3:6e:cb:4c:fd:f4:02:
                    73:a7:2b:f2:46:3e:f0:ea:00:0b:a1:30:3d:b5:33:
                    d0:59:de:5e:61:56:78:9d:84:0a:5b:01:a3:a5:51:
                    72:7c:b6:5d:8a:9a:52:43:35:c3:c5:5e:3e:b3:24:
                    57:d2:15:97:e9:76:7a:18:c1:f7:07:8a:d9:53:d1:
                    5a:7c:5e:c0:37:65:dd:75:28:b6:14:73:eb:11:c6:
                    b0:ba:23:ef:f0:8c:2a:45:cc:83:06:41:3d:2e:68:
                    6b:bf:84:28:f7:c3:07:ab:5c:6b:bd:a8:3d:84:65:
                    4f:8f:47:f3:e9:a3:81:0a:c7:2e:94:33:2b:31:36:
                    8d:c1
                Exponent: 65537 (0x10001)
        X509v3 extensions:
            X509v3 Basic Constraints: 
                CA:TRUE
    Signature Algorithm: sha256WithRSAEncryption
         60:2a:12:23:83:c7:90:63:a1:66:ec:8f:85:ba:85:4e:af:1f:
         cf:0c:d8:e2:3f:ca:31:16:e3:3a:81:f1:26:77:63:be:76:7a:
         16:d8:76:dc:f3:a4:04:f2:d4:cc:48:07:f5:97:13:90:2f:bc:
         2d:9f:43:9e:d6:98:a2:a8:e2:05:68:b0:72:d1:c9:04:ca:03:
         93:9c:e8:22:6e:ee:b8:e9:20:0d:53:6d:c1:da:e7:01:c0:6d:
         7e:7e:df:cc:2b:9f:26:04:80:1a:e7:64:07:35:d4:55:15:c5:
         5b:4c:3b:ff:8a:7c:93:e9:28:24:ac:9e:d5:48:7f:fb:08:81:
         8d:7b:a3:be:5a:a4:b2:a6:1f:53:0c:0a:62:62:1d:88:37:81:
         71:c6:b9:0e:e3:85:ce:4d:0b:de:a3:b2:fc:37:b8:45:1b:a5:
         73:30:6a:1b:84:48:c2:da:4e:77:da:76:0a:1b:d9:07:3c:95:
         d0:b3:9d:36:21:18:9e:4e:da:e7:c9:e4:2a:2c:36:72:2a:32:
         23:9c:f8:2a:96:7d:7d:24:6d:c8:69:e5:80:8d:d7:fc:f6:41:
         04:db:60:22:23:02:c5:3a:29:df:a5:c4:1b:c5:19:c8:0b:7f:
         cf:ef:9c:1c:80:7f:46:ac:c4:7f:bc:ce:7f:60:74:2b:b6:dc:
         4b:e9:06:e0
-----BEGIN CERTIFICATE-----
MIIDOzCCAiOgAwIBAgIBAjANBgkqhkiG9w0BAQsFADBXMQswCQYDVQQGEwJDTjES
MBAGA1UECAwJQ2hvbmdRaW5nMQwwCgYDVQQKDANDUVUxEDAOBgNVBAsMB1Jvb3Qg
Q0ExFDASBgNVBAMMC2NRVSBSb290IENBMB4XDTIzMDMxNTAyNDYwM1oXDTI0MDMx
NDAyNDYwM1owWTELMAkGA1UEBhMCQ04xEjAQBgNVBAgMCUNob25nUWluZzEMMAoG
A1UECgwDQ1FVMREwDwYDVQQLDAhhZ2VudCBDQTEVMBMGA1UEAwwMQ1FVIGFnZW50
IENBMIIBIjANBgkqhkiG9w0BAQEFAAOCAQ8AMIIBCgKCAQEA2MOwiM1etYdLTqOP
5gl0uPSpd56yR0XPIpOLUedfpT4CjoUayZN0kcI8mE7HInaWaWDSQlUDXXcB8Ew9
PBRwWWJOAk1Tz66Lz6H/C+HFXSJHjZHMu8fIONM9GjAuE8mr24hjmlWd1UQbZHX1
CwrOAjclHRy5Jpv926yODeAr6MNuy0z99AJzpyvyRj7w6gALoTA9tTPQWd5eYVZ4
nYQKWwGjpVFyfLZdippSQzXDxV4+syRX0hWX6XZ6GMH3B4rZU9FafF7AN2XddSi2
FHPrEcawuiPv8IwqRcyDBkE9Lmhrv4Qo98MHq1xrvag9hGVPj0fz6aOBCsculDMr
MTaNwQIDAQABoxAwDjAMBgNVHRMEBTADAQH/MA0GCSqGSIb3DQEBCwUAA4IBAQBg
KhIjg8eQY6Fm7I+FuoVOrx/PDNjiP8oxFuM6gfEmd2O+dnoW2Hbc86QE8tTMSAf1
lxOQL7wtn0Oe1piiqOIFaLBy0ckEygOTnOgibu646SANU23B2ucBwG1+ft/MK58m
BIAa52QHNdRVFcVbTDv/inyT6SgkrJ7VSH/7CIGNe6O+WqSyph9TDApiYh2IN4Fx
xrkO44XOTQveo7L8N7hFG6VzMGobhEjC2k532nYKG9kHPJXQs502IRieTtrnyeQq
LDZyKjIjnPgqln19JG3IaeWAjdf89kEE22AiIwLFOinfpcQbxRnIC3/P75wcgH9G
rMR/vM5/YHQrttxL6Qbg
-----END CERTIFICATE-----
