Certificate:
    Data:
        Version: 3 (0x2)
        Serial Number: 1 (0x1)
        Signature Algorithm: sha256WithRSAEncryption
        Issuer: C=CN, ST=ChongQing, O=CQU, OU=agent CA, CN=CQU agent CA
        Validity
            Not Before: Mar 15 03:28:34 2023 GMT
            Not After : Mar 14 03:28:34 2024 GMT
        Subject: C=CN, ST=ChongQing, O=CQU, OU=CQU IT seriver, CN=CQU_seriver
        Subject Public Key Info:
            Public Key Algorithm: rsaEncryption
                RSA Public-Key: (2048 bit)
                Modulus:
                    00:9a:e2:18:5e:e9:54:d6:bf:21:fc:fd:84:a4:8d:
                    ff:b0:22:c5:5b:ec:ef:96:ff:ae:62:b0:90:ad:6c:
                    f9:31:16:d1:b6:31:f6:dc:a2:a2:9d:8f:cc:2a:c6:
                    64:f1:bf:c0:2c:8e:0d:1d:9c:33:49:bc:21:e3:14:
                    23:83:d7:b7:17:82:99:94:6c:73:d2:8b:06:a0:b4:
                    4e:1c:d7:a5:7b:f6:79:f1:f0:8d:fc:1b:64:f5:b9:
                    16:c6:a1:4d:09:4e:cb:80:c7:10:6d:d2:0a:a6:f3:
                    99:d3:35:27:57:d4:9a:e9:76:6c:54:cb:63:58:36:
                    54:0e:8c:d1:64:e6:27:46:4d:ef:97:86:b0:22:bd:
                    4d:6c:b2:d6:29:de:a8:c6:cd:fc:bf:d6:c5:e2:7e:
                    27:29:d4:82:7e:7c:8e:fe:e3:52:b5:64:02:5f:3e:
                    18:25:3a:72:33:ed:02:ec:21:78:61:cb:de:53:82:
                    2c:1b:66:15:34:c3:65:42:a5:20:4e:64:f1:f6:01:
                    c8:8c:da:c6:19:98:fb:1e:88:59:ae:4a:18:ff:4d:
                    c1:dc:1d:65:46:32:52:bc:28:aa:af:ca:d0:3d:0a:
                    76:ec:f4:87:0e:a7:07:31:2f:63:ba:f8:59:15:43:
                    d7:49:03:92:02:30:2f:e6:83:b4:19:71:43:33:c7:
                    e1:5b
                Exponent: 65537 (0x10001)
        X509v3 extensions:
            X509v3 Basic Constraints: 
                CA:FALSE
            X509v3 Subject Alternative Name: 
                DNS:cqu.edu.cn
    Signature Algorithm: sha256WithRSAEncryption
         7e:e8:14:23:34:03:30:69:2f:b4:05:b7:b3:7c:e6:23:c2:d7:
         d2:3b:ad:f0:93:3f:ee:f4:81:47:2d:12:e3:ec:25:64:30:c0:
         29:45:31:de:c0:cb:28:60:4a:05:46:45:6c:90:4b:5a:47:9e:
         ef:5a:98:4b:eb:f5:9c:ea:17:58:58:54:bf:a4:f4:30:c5:b9:
         58:0d:59:83:b3:e4:60:f8:0e:26:da:9c:83:16:a9:0a:28:59:
         36:75:1c:e5:2c:70:6c:87:59:32:2c:08:57:6a:0c:71:6c:8f:
         ae:6c:40:30:68:3a:f1:15:7a:cd:c1:c7:a8:75:35:f1:58:39:
         df:c8:d2:61:9d:10:67:eb:61:64:d4:c7:13:79:28:7c:e0:bb:
         3e:e6:62:ed:69:de:53:d3:b1:07:ec:1a:47:d6:ba:ec:65:94:
         5d:4d:1c:88:a8:85:e4:00:95:2a:5e:3b:20:64:67:d6:fc:2c:
         77:a2:9c:89:40:0a:4b:bd:48:c5:ad:b5:0c:2e:2a:21:06:1d:
         11:6c:f6:ec:a0:33:4a:4b:21:ac:7c:7d:4d:82:0c:88:87:52:
         9c:49:a2:6d:36:20:da:d0:62:1f:a3:26:fc:8b:d0:8b:e8:65:
         22:b9:5f:fc:06:5b:c9:19:c1:92:c9:b5:75:c5:65:57:80:d8:
         a3:3e:b5:a4
-----BEGIN CERTIFICATE-----
MIIDVjCCAj6gAwIBAgIBATANBgkqhkiG9w0BAQsFADBZMQswCQYDVQQGEwJDTjES
MBAGA1UECAwJQ2hvbmdRaW5nMQwwCgYDVQQKDANDUVUxETAPBgNVBAsMCGFnZW50
IENBMRUwEwYDVQQDDAxDUVUgYWdlbnQgQ0EwHhcNMjMwMzE1MDMyODM0WhcNMjQw
MzE0MDMyODM0WjBeMQswCQYDVQQGEwJDTjESMBAGA1UECAwJQ2hvbmdRaW5nMQww
CgYDVQQKDANDUVUxFzAVBgNVBAsMDkNRVSBJVCBzZXJpdmVyMRQwEgYDVQQDDAtD
UVVfc2VyaXZlcjCCASIwDQYJKoZIhvcNAQEBBQADggEPADCCAQoCggEBAJriGF7p
VNa/Ifz9hKSN/7AixVvs75b/rmKwkK1s+TEW0bYx9tyiop2PzCrGZPG/wCyODR2c
M0m8IeMUI4PXtxeCmZRsc9KLBqC0ThzXpXv2efHwjfwbZPW5FsahTQlOy4DHEG3S
CqbzmdM1J1fUmul2bFTLY1g2VA6M0WTmJ0ZN75eGsCK9TWyy1ineqMbN/L/WxeJ+
JynUgn58jv7jUrVkAl8+GCU6cjPtAuwheGHL3lOCLBtmFTTDZUKlIE5k8fYByIza
xhmY+x6IWa5KGP9NwdwdZUYyUrwoqq/K0D0Kduz0hw6nBzEvY7r4WRVD10kDkgIw
L+aDtBlxQzPH4VsCAwEAAaMkMCIwCQYDVR0TBAIwADAVBgNVHREEDjAMggpjcXUu
ZWR1LmNuMA0GCSqGSIb3DQEBCwUAA4IBAQB+6BQjNAMwaS+0BbezfOYjwtfSO63w
kz/u9IFHLRLj7CVkMMApRTHewMsoYEoFRkVskEtaR57vWphL6/Wc6hdYWFS/pPQw
xblYDVmDs+Rg+A4m2pyDFqkKKFk2dRzlLHBsh1kyLAhXagxxbI+ubEAwaDrxFXrN
wceodTXxWDnfyNJhnRBn62Fk1McTeSh84Ls+5mLtad5T07EH7BpH1rrsZZRdTRyI
qIXkAJUqXjsgZGfW/Cx3opyJQApLvUjFrbUMLiohBh0RbPbsoDNKSyGsfH1NggyI
h1KcSaJtNiDa0GIfoyb8i9CL6GUiuV/8BlvJGcGSybV1xWVXgNijPrWk
-----END CERTIFICATE-----
