Certificate:
    Data:
        Version: 3 (0x2)
        Serial Number: 1 (0x1)
        Signature Algorithm: sha256WithRSAEncryption
        Issuer: C=CN, ST=ChongQing, O=CQU, OU=Root CA, CN=cQU Root CA
        Validity
            Not Before: Mar 15 02:35:38 2023 GMT
            Not After : Mar 14 02:35:38 2024 GMT
        Subject: C=CN, ST=ChongQing, O=CQU, OU=Root CA, CN=cQU Root CA
        Subject Public Key Info:
            Public Key Algorithm: rsaEncryption
                RSA Public-Key: (2048 bit)
                Modulus:
                    00:cc:08:87:e3:ef:19:5a:3c:bd:a5:33:0e:b2:bc:
                    7d:a6:66:50:52:7c:7c:3e:7b:e6:4c:ef:6b:a8:03:
                    a3:c0:46:de:62:57:71:ab:46:17:e2:20:a1:21:e7:
                    1f:a0:cb:8f:b8:1c:98:fe:81:c0:93:d5:e1:71:aa:
                    7c:18:6c:ee:26:38:3e:81:99:d7:65:9e:dc:3c:2a:
                    c2:85:04:d9:90:31:32:aa:f5:e7:dc:1e:d4:d2:4c:
                    9d:6c:0e:6a:7b:0b:61:89:eb:f6:10:a7:5b:03:8e:
                    0b:74:88:e4:27:a6:a5:e1:db:f5:d7:3f:e3:cd:ce:
                    3d:82:12:a8:d3:73:22:39:db:c8:97:bb:03:17:62:
                    82:01:2b:42:8b:e5:7b:05:53:22:73:f5:c8:08:33:
                    91:b4:dc:cf:b9:46:f9:ea:ed:d5:0f:42:9a:78:1f:
                    b3:f9:88:fd:fe:3d:ac:6c:07:75:7c:38:0a:7d:5f:
                    00:7e:d4:86:71:ad:ba:f0:7a:05:d2:ae:43:92:aa:
                    33:de:50:99:c4:a7:5b:26:44:3d:55:30:d8:73:7b:
                    93:e3:a0:50:2e:d5:32:60:d9:4f:1c:dc:e1:5b:53:
                    ae:34:fe:9b:b9:07:25:d4:ea:97:87:fe:f9:fb:e7:
                    4e:6a:b3:c1:7e:ba:5f:af:ca:b4:9a:20:96:7a:85:
                    70:61
                Exponent: 65537 (0x10001)
        X509v3 extensions:
            X509v3 Basic Constraints: 
                CA:TRUE
    Signature Algorithm: sha256WithRSAEncryption
         31:60:14:5b:ac:a2:fb:d1:8c:d4:93:03:48:2d:98:01:03:16:
         36:a0:00:5b:57:d2:6c:4f:6b:1a:93:c2:76:54:32:f5:29:69:
         f1:6c:1c:46:25:81:81:29:11:98:1b:ac:1f:49:2d:e2:4e:4f:
         af:e9:18:c6:3a:53:a8:31:e5:c9:d0:22:30:97:3b:e3:f5:78:
         15:8c:47:13:64:06:27:90:46:b5:e3:21:a9:86:50:f7:c5:3d:
         1a:8d:12:a3:aa:3d:6e:58:32:a9:98:0b:5d:25:82:58:95:52:
         51:bf:c3:f7:5e:a3:79:90:58:09:7c:c3:ab:62:57:0b:a2:c4:
         59:21:5d:4c:76:1b:11:aa:a3:57:29:46:ce:6b:85:a5:3b:ec:
         c3:a5:31:11:45:a9:7d:d7:fd:79:18:5e:c3:37:c0:dc:df:8c:
         7c:a0:44:5b:7e:be:13:4f:d7:2f:ae:b2:2d:99:20:69:1e:47:
         72:79:30:aa:49:d7:d8:7e:26:5d:99:7d:83:e6:4d:a3:95:5e:
         46:07:9f:58:c5:64:41:87:40:11:4d:b2:71:eb:4d:0e:93:ac:
         91:e5:b7:24:b8:ec:f1:0f:44:f3:51:9f:7d:fc:52:9b:0c:73:
         8f:ec:e8:72:d4:dd:7f:17:6e:2a:52:0e:4b:ff:cb:d2:0c:42:
         82:8d:ba:bd
-----BEGIN CERTIFICATE-----
MIIDOTCCAiGgAwIBAgIBATANBgkqhkiG9w0BAQsFADBXMQswCQYDVQQGEwJDTjES
MBAGA1UECAwJQ2hvbmdRaW5nMQwwCgYDVQQKDANDUVUxEDAOBgNVBAsMB1Jvb3Qg
Q0ExFDASBgNVBAMMC2NRVSBSb290IENBMB4XDTIzMDMxNTAyMzUzOFoXDTI0MDMx
NDAyMzUzOFowVzELMAkGA1UEBhMCQ04xEjAQBgNVBAgMCUNob25nUWluZzEMMAoG
A1UECgwDQ1FVMRAwDgYDVQQLDAdSb290IENBMRQwEgYDVQQDDAtjUVUgUm9vdCBD
QTCCASIwDQYJKoZIhvcNAQEBBQADggEPADCCAQoCggEBAMwIh+PvGVo8vaUzDrK8
faZmUFJ8fD575kzva6gDo8BG3mJXcatGF+IgoSHnH6DLj7gcmP6BwJPV4XGqfBhs
7iY4PoGZ12We3DwqwoUE2ZAxMqr159we1NJMnWwOansLYYnr9hCnWwOOC3SI5Cem
peHb9dc/483OPYISqNNzIjnbyJe7AxdiggErQovlewVTInP1yAgzkbTcz7lG+ert
1Q9Cmngfs/mI/f49rGwHdXw4Cn1fAH7UhnGtuvB6BdKuQ5KqM95QmcSnWyZEPVUw
2HN7k+OgUC7VMmDZTxzc4VtTrjT+m7kHJdTql4f++fvnTmqzwX66X6/KtJoglnqF
cGECAwEAAaMQMA4wDAYDVR0TBAUwAwEB/zANBgkqhkiG9w0BAQsFAAOCAQEAMWAU
W6yi+9GM1JMDSC2YAQMWNqAAW1fSbE9rGpPCdlQy9Slp8WwcRiWBgSkRmBusH0kt
4k5Pr+kYxjpTqDHlydAiMJc74/V4FYxHE2QGJ5BGteMhqYZQ98U9Go0So6o9blgy
qZgLXSWCWJVSUb/D916jeZBYCXzDq2JXC6LEWSFdTHYbEaqjVylGzmuFpTvsw6Ux
EUWpfdf9eRhewzfA3N+MfKBEW36+E0/XL66yLZkgaR5HcnkwqknX2H4mXZl9g+ZN
o5VeRgefWMVkQYdAEU2ycetNDpOskeW3JLjs8Q9E81GfffxSmwxzj+zoctTdfxdu
KlIOS//L0gxCgo26vQ==
-----END CERTIFICATE-----
